target datalayout = "e-m:e-p270:32:32-p271:32:32-p272:64:64-i64:64-i128:128-f80:128-n8:16:32:64-S128"
target triple = "x86_64-pc-linux-gnu"

%struct.archive_string = type { ptr, i64, i64 }
%struct.zip = type { %struct.archive_string, i64, i64, i64, i64, i32, ptr, %struct.archive_rb_tree, %struct.archive_rb_tree, i64, ptr, i64, i64, i64, i64, ptr, i8, i8, i8, ptr, i64, %struct.z_stream_s, i8, %struct.lzma_stream, i8, %struct.bz_stream, i8, ptr, i8, %struct.IByteIn, i64, %struct.CPpmd8, i8, i8, ptr, ptr, ptr, i32, i32, i8, ptr, ptr, i64, i64, i64, %struct.trad_enc_ctx, i8, %struct.archive_crypto_ctx, i8, ptr, i8, i32, i32, i32, i32, i32, i32, i32, ptr, ptr, ptr }
%struct.archive_rb_tree = type { ptr, ptr }
%struct.z_stream_s = type { ptr, i32, i64, ptr, i32, i64, ptr, ptr, ptr, ptr, ptr, i32, i64, i64 }
%struct.lzma_stream = type { ptr, i64, i64, ptr, i64, i64, ptr, ptr, ptr, ptr, ptr, ptr, i64, i64, i64, i64, i32, i32 }
%struct.bz_stream = type { ptr, i32, i32, i32, ptr, i32, i32, i32, ptr, ptr, ptr, ptr }
%struct.IByteIn = type { ptr, ptr }
%struct.CPpmd8 = type { ptr, ptr, ptr, i32, i32, i32, i32, i32, i32, i32, i32, ptr, ptr, ptr, ptr, ptr, i32, i32, i32, i32, i32, %union.anon, [38 x i8], [128 x i8], [38 x i32], [38 x i32], [256 x i8], [260 x i8], %struct.CPpmd_See, [24 x [32 x %struct.CPpmd_See]], [25 x [64 x i16]] }
%union.anon = type { ptr }
%struct.CPpmd_See = type { i16, i8, i8 }
%struct.trad_enc_ctx = type { [3 x i32] }
%struct.archive_crypto_ctx = type { ptr, ptr, [32 x i8], i32, [16 x i8], [16 x i8], i32 }

; Function Attrs: inlinehint nounwind uwtable
define internal i32 @archive_le32dec(ptr noundef %0) #9 {
  %2 = alloca ptr, align 8
  %3 = alloca ptr, align 8
  %4 = alloca i32, align 4
  %5 = alloca i32, align 4
  %6 = alloca i32, align 4
  %7 = alloca i32, align 4
  store ptr %0, ptr %2, align 8, !tbaa !44
  call void @llvm.lifetime.start.p0(i64 8, ptr %3) #11
  %8 = load ptr, ptr %2, align 8, !tbaa !44
  store ptr %8, ptr %3, align 8, !tbaa !45
  call void @llvm.lifetime.start.p0(i64 4, ptr %4) #11
  %9 = load ptr, ptr %3, align 8, !tbaa !45
  %10 = getelementptr inbounds i8, ptr %9, i64 3
  %11 = load i8, ptr %10, align 1, !tbaa !46
  %12 = zext i8 %11 to i32
  store i32 %12, ptr %4, align 4, !tbaa !9
  call void @llvm.lifetime.start.p0(i64 4, ptr %5) #11
  %13 = load ptr, ptr %3, align 8, !tbaa !45
  %14 = getelementptr inbounds i8, ptr %13, i64 2
  %15 = load i8, ptr %14, align 1, !tbaa !46
  %16 = zext i8 %15 to i32
  store i32 %16, ptr %5, align 4, !tbaa !9
  call void @llvm.lifetime.start.p0(i64 4, ptr %6) #11
  %17 = load ptr, ptr %3, align 8, !tbaa !45
  %18 = getelementptr inbounds i8, ptr %17, i64 1
  %19 = load i8, ptr %18, align 1, !tbaa !46
  %20 = zext i8 %19 to i32
  store i32 %20, ptr %6, align 4, !tbaa !9
  call void @llvm.lifetime.start.p0(i64 4, ptr %7) #11
  %21 = load ptr, ptr %3, align 8, !tbaa !45
  %22 = getelementptr inbounds i8, ptr %21, i64 0
  %23 = load i8, ptr %22, align 1, !tbaa !46
  %24 = zext i8 %23 to i32
  store i32 %24, ptr %7, align 4, !tbaa !9
  %25 = load i32, ptr %4, align 4, !tbaa !9
  %26 = shl i32 %25, 24
  %27 = load i32, ptr %5, align 4, !tbaa !9
  %28 = shl i32 %27, 16
  %29 = or i32 %26, %28
  %30 = load i32, ptr %6, align 4, !tbaa !9
  %31 = shl i32 %30, 8
  %32 = or i32 %29, %31
  %33 = load i32, ptr %7, align 4, !tbaa !9
  %34 = or i32 %32, %33
  call void @llvm.lifetime.end.p0(i64 4, ptr %7) #11
  call void @llvm.lifetime.end.p0(i64 4, ptr %6) #11
  call void @llvm.lifetime.end.p0(i64 4, ptr %5) #11
  call void @llvm.lifetime.end.p0(i64 4, ptr %4) #11
  call void @llvm.lifetime.end.p0(i64 8, ptr %3) #11
  ret i32 %34
}

; Function Attrs: inlinehint nounwind uwtable
define internal zeroext i16 @archive_le16dec(ptr noundef %0) #9 {
  %2 = alloca ptr, align 8
  %3 = alloca ptr, align 8
  %4 = alloca i32, align 4
  %5 = alloca i32, align 4
  store ptr %0, ptr %2, align 8, !tbaa !44
  call void @llvm.lifetime.start.p0(i64 8, ptr %3) #11
  %6 = load ptr, ptr %2, align 8, !tbaa !44
  store ptr %6, ptr %3, align 8, !tbaa !45
  call void @llvm.lifetime.start.p0(i64 4, ptr %4) #11
  %7 = load ptr, ptr %3, align 8, !tbaa !45
  %8 = getelementptr inbounds i8, ptr %7, i64 1
  %9 = load i8, ptr %8, align 1, !tbaa !46
  %10 = zext i8 %9 to i32
  store i32 %10, ptr %4, align 4, !tbaa !9
  call void @llvm.lifetime.start.p0(i64 4, ptr %5) #11
  %11 = load ptr, ptr %3, align 8, !tbaa !45
  %12 = getelementptr inbounds i8, ptr %11, i64 0
  %13 = load i8, ptr %12, align 1, !tbaa !46
  %14 = zext i8 %13 to i32
  store i32 %14, ptr %5, align 4, !tbaa !9
  %15 = load i32, ptr %4, align 4, !tbaa !9
  %16 = shl i32 %15, 8
  %17 = load i32, ptr %5, align 4, !tbaa !9
  %18 = or i32 %16, %17
  %19 = trunc i32 %18 to i16
  call void @llvm.lifetime.end.p0(i64 4, ptr %5) #11
  call void @llvm.lifetime.end.p0(i64 4, ptr %4) #11
  call void @llvm.lifetime.end.p0(i64 8, ptr %3) #11
  ret i16 %19
}

; Function Attrs: nounwind uwtable
define internal i32 @read_eocd(ptr noundef %0, ptr noundef %1, i64 noundef %2) #0 {
  %4 = alloca i32, align 4
  %5 = alloca ptr, align 8
  %6 = alloca ptr, align 8
  %7 = alloca i64, align 8
  %8 = alloca i16, align 2
  %9 = alloca i32, align 4
  %10 = alloca i32, align 4
  %11 = alloca i32, align 4
  store ptr %0, ptr %5, align 8, !tbaa !13
  store ptr %1, ptr %6, align 8, !tbaa !45
  store i64 %2, ptr %7, align 8, !tbaa !43
  call void @llvm.lifetime.start.p0(i64 2, ptr %8) #11
  call void @llvm.lifetime.start.p0(i64 4, ptr %9) #11
  call void @llvm.lifetime.start.p0(i64 4, ptr %10) #11
  %12 = load ptr, ptr %6, align 8, !tbaa !45
  %13 = getelementptr inbounds i8, ptr %12, i64 4
  %14 = call zeroext i16 @archive_le16dec(ptr noundef %13)
  store i16 %14, ptr %8, align 2, !tbaa !122
  %15 = load ptr, ptr %6, align 8, !tbaa !45
  %16 = getelementptr inbounds i8, ptr %15, i64 12
  %17 = call i32 @archive_le32dec(ptr noundef %16)
  store i32 %17, ptr %9, align 4, !tbaa !9
  %18 = load ptr, ptr %6, align 8, !tbaa !45
  %19 = getelementptr inbounds i8, ptr %18, i64 16
  %20 = call i32 @archive_le32dec(ptr noundef %19)
  store i32 %20, ptr %10, align 4, !tbaa !9
  %21 = load i16, ptr %8, align 2, !tbaa !122
  %22 = zext i16 %21 to i32
  %23 = icmp ne i32 %22, 0
  br i1 %23, label %24, label %25

24:                                               ; preds = %3
  store i32 0, ptr %4, align 4
  store i32 1, ptr %11, align 4
  br label %65

25:                                               ; preds = %3
  %26 = load i16, ptr %8, align 2, !tbaa !122
  %27 = zext i16 %26 to i32
  %28 = load ptr, ptr %6, align 8, !tbaa !45
  %29 = getelementptr inbounds i8, ptr %28, i64 6
  %30 = call zeroext i16 @archive_le16dec(ptr noundef %29)
  %31 = zext i16 %30 to i32
  %32 = icmp ne i32 %27, %31
  br i1 %32, label %33, label %34

33:                                               ; preds = %25
  store i32 0, ptr %4, align 4
  store i32 1, ptr %11, align 4
  br label %65

34:                                               ; preds = %25
  %35 = load ptr, ptr %6, align 8, !tbaa !45
  %36 = getelementptr inbounds i8, ptr %35, i64 10
  %37 = call zeroext i16 @archive_le16dec(ptr noundef %36)
  %38 = zext i16 %37 to i32
  %39 = load ptr, ptr %6, align 8, !tbaa !45
  %40 = getelementptr inbounds i8, ptr %39, i64 8
  %41 = call zeroext i16 @archive_le16dec(ptr noundef %40)
  %42 = zext i16 %41 to i32
  %43 = icmp ne i32 %38, %42
  br i1 %43, label %44, label %45

44:                                               ; preds = %34
  store i32 0, ptr %4, align 4
  store i32 1, ptr %11, align 4
  br label %65

45:                                               ; preds = %34
  %46 = load i32, ptr %10, align 4, !tbaa !9
  %47 = zext i32 %46 to i64
  %48 = load i32, ptr %9, align 4, !tbaa !9
  %49 = zext i32 %48 to i64
  %50 = add nsw i64 %47, %49
  %51 = load i64, ptr %7, align 8, !tbaa !43
  %52 = icmp sgt i64 %50, %51
  br i1 %52, label %53, label %54

53:                                               ; preds = %45
  store i32 0, ptr %4, align 4
  store i32 1, ptr %11, align 4
  br label %65

54:                                               ; preds = %45
  %55 = load i32, ptr %10, align 4, !tbaa !9
  %56 = zext i32 %55 to i64
  %57 = load ptr, ptr %5, align 8, !tbaa !13
  %58 = getelementptr inbounds nuw %struct.zip, ptr %57, i32 0, i32 1
  store i64 %56, ptr %58, align 8, !tbaa !226
  %59 = load i64, ptr %7, align 8, !tbaa !43
  %60 = load i32, ptr %9, align 4, !tbaa !9
  %61 = zext i32 %60 to i64
  %62 = sub nsw i64 %59, %61
  %63 = load ptr, ptr %5, align 8, !tbaa !13
  %64 = getelementptr inbounds nuw %struct.zip, ptr %63, i32 0, i32 2
  store i64 %62, ptr %64, align 8, !tbaa !227
  store i32 32, ptr %4, align 4
  store i32 1, ptr %11, align 4
  br label %65

65:                                               ; preds = %54, %53, %44, %33, %24
  call void @llvm.lifetime.end.p0(i64 4, ptr %10) #11
  call void @llvm.lifetime.end.p0(i64 4, ptr %9) #11
  call void @llvm.lifetime.end.p0(i64 2, ptr %8) #11
  %66 = load i32, ptr %4, align 4
  ret i32 %66
}